target datalayout = "e-m:e-p270:32:32-p271:32:32-p272:64:64-i64:64-i128:128-f80:128-n8:16:32:64-S128"
target triple = "x86_64-unknown-linux-gnu"

%class.aiVector3t = type { float, float, float }
%struct.aiVectorKey = type <{ double, %class.aiVector3t, [4 x i8] }>

@_ZTI17DeadlyImportError = linkonce_odr constant { ptr, ptr, ptr } { ptr getelementptr inbounds (ptr, ptr @_ZTVN10__cxxabiv120__si_class_type_infoE, i64 2), ptr @_ZTS17DeadlyImportError, ptr @_ZTI15DeadlyErrorBase }, comdat, align 8
@.str.13 = private unnamed_addr constant [15 x i8] c"Unexpected EOF\00", align 1

; Function Attrs: mustprogress nounwind uwtable
define linkonce_odr hidden void @_ZN10aiVector3tIfEC2Ev(ptr noundef nonnull align 4 dereferenceable(12) %this) unnamed_addr #0 comdat align 2 {
entry:
  %this.addr = alloca ptr, align 8
  store ptr %this, ptr %this.addr, align 8
  %this1 = load ptr, ptr %this.addr, align 8
  %x = getelementptr inbounds %class.aiVector3t, ptr %this1, i32 0, i32 0
  store float 0.000000e+00, ptr %x, align 4
  %y = getelementptr inbounds %class.aiVector3t, ptr %this1, i32 0, i32 1
  store float 0.000000e+00, ptr %y, align 4
  %z = getelementptr inbounds %class.aiVector3t, ptr %this1, i32 0, i32 2
  store float 0.000000e+00, ptr %z, align 4
  ret void
}

; Function Attrs: mustprogress uwtable
define linkonce_odr hidden noundef double @_Z4ReadIdET_PN6Assimp8IOStreamE(ptr noundef %stream) #2 comdat personality ptr @__gxx_personality_v0 {
entry:
  %stream.addr = alloca ptr, align 8
  %t = alloca double, align 8
  %res = alloca i64, align 8
  %exn.slot = alloca ptr, align 8
  %ehselector.slot = alloca i32, align 4
  store ptr %stream, ptr %stream.addr, align 8
  %0 = load ptr, ptr %stream.addr, align 8
  %vtable = load ptr, ptr %0, align 8
  %vfn = getelementptr inbounds ptr, ptr %vtable, i64 2
  %1 = load ptr, ptr %vfn, align 8
  %call = call noundef i64 %1(ptr noundef nonnull align 8 dereferenceable(8) %0, ptr noundef %t, i64 noundef 8, i64 noundef 1)
  store i64 %call, ptr %res, align 8
  %2 = load i64, ptr %res, align 8
  %cmp = icmp ne i64 %2, 1
  br i1 %cmp, label %if.then, label %if.end

if.then:                                          ; preds = %entry
  %exception = call ptr @__cxa_allocate_exception(i64 16) #15
  invoke void @_ZN17DeadlyImportErrorC2EPKc(ptr noundef nonnull align 8 dereferenceable(16) %exception, ptr noundef @.str.13)
          to label %invoke.cont unwind label %lpad

invoke.cont:                                      ; preds = %if.then
  call void @__cxa_throw(ptr %exception, ptr @_ZTI17DeadlyImportError, ptr @_ZN17DeadlyImportErrorD2Ev) #17
  unreachable

lpad:                                             ; preds = %if.then
  %3 = landingpad { ptr, i32 }
          cleanup
  %4 = extractvalue { ptr, i32 } %3, 0
  store ptr %4, ptr %exn.slot, align 8
  %5 = extractvalue { ptr, i32 } %3, 1
  store i32 %5, ptr %ehselector.slot, align 4
  call void @__cxa_free_exception(ptr %exception) #15
  br label %eh.resume

if.end:                                           ; preds = %entry
  %6 = load double, ptr %t, align 8
  ret double %6

eh.resume:                                        ; preds = %lpad
  %exn = load ptr, ptr %exn.slot, align 8
  %sel = load i32, ptr %ehselector.slot, align 4
  %lpad.val = insertvalue { ptr, i32 } poison, ptr %exn, 0
  %lpad.val1 = insertvalue { ptr, i32 } %lpad.val, i32 %sel, 1
  resume { ptr, i32 } %lpad.val1
}

; Function Attrs: mustprogress nounwind uwtable
define linkonce_odr hidden void @_ZN11aiVectorKeyC2Ev(ptr noundef nonnull align 8 dereferenceable(20) %this) unnamed_addr #0 comdat align 2 {
entry:
  %this.addr = alloca ptr, align 8
  store ptr %this, ptr %this.addr, align 8
  %this1 = load ptr, ptr %this.addr, align 8
  %mTime = getelementptr inbounds %struct.aiVectorKey, ptr %this1, i32 0, i32 0
  store double 0.000000e+00, ptr %mTime, align 8
  %mValue = getelementptr inbounds %struct.aiVectorKey, ptr %this1, i32 0, i32 1
  call void @_ZN10aiVector3tIfEC2Ev(ptr noundef nonnull align 4 dereferenceable(12) %mValue) #15
  ret void
}

; Function Attrs: mustprogress uwtable
define hidden void @_Z4ReadI11aiVectorKeyET_PN6Assimp8IOStreamE(ptr noalias sret(%struct.aiVectorKey) align 8 %agg.result, ptr noundef %stream) #6 {
entry:
  %stream.addr = alloca ptr, align 8
  %ref.tmp = alloca %class.aiVector3t, align 4
  %tmp.coerce = alloca { <2 x float>, float }, align 8
  store ptr %stream, ptr %stream.addr, align 8
  call void @_ZN11aiVectorKeyC2Ev(ptr noundef nonnull align 8 dereferenceable(20) %agg.result) #15
  %0 = load ptr, ptr %stream.addr, align 8
  %call = call noundef double @_Z4ReadIdET_PN6Assimp8IOStreamE(ptr noundef %0)
  %mTime = getelementptr inbounds %struct.aiVectorKey, ptr %agg.result, i32 0, i32 0
  store double %call, ptr %mTime, align 8
  %1 = load ptr, ptr %stream.addr, align 8
  %call1 = call { <2 x float>, float } @_Z4ReadI10aiVector3tIfEET_PN6Assimp8IOStreamE(ptr noundef %1)
  store { <2 x float>, float } %call1, ptr %tmp.coerce, align 8
  call void @llvm.memcpy.p0.p0.i64(ptr align 4 %ref.tmp, ptr align 8 %tmp.coerce, i64 12, i1 false)
  %mValue = getelementptr inbounds %struct.aiVectorKey, ptr %agg.result, i32 0, i32 1
  call void @llvm.memcpy.p0.p0.i64(ptr align 8 %mValue, ptr align 4 %ref.tmp, i64 12, i1 false)
  ret void
}