; Function Attrs: mustprogress uwtable
define hidden void @_Z4ReadI11aiVectorKeyET_PN6Assimp8IOStreamE(ptr noalias nocapture writeonly sret(%struct.aiVectorKey) align 8 %agg.result, ptr noundef %stream) local_unnamed_addr #4 personality ptr @__gxx_personality_v0 {
entry:
  %t.i = alloca double, align 8
  tail call void @llvm.memset.p0.i64(ptr noundef nonnull align 8 dereferenceable(20) %agg.result, i8 0, i64 20, i1 false)
  call void @llvm.lifetime.start.p0(i64 8, ptr nonnull %t.i)
  %vtable.i = load ptr, ptr %stream, align 8
  %vfn.i = getelementptr inbounds i8, ptr %vtable.i, i64 16
  %0 = load ptr, ptr %vfn.i, align 8
  %call.i = call noundef i64 %0(ptr noundef nonnull align 8 dereferenceable(8) %stream, ptr noundef nonnull %t.i, i64 noundef 8, i64 noundef 1)
  %cmp.not.i = icmp eq i64 %call.i, 1
  br i1 %cmp.not.i, label %_Z4ReadIdET_PN6Assimp8IOStreamE.exit, label %if.then.i

if.then.i:                                        ; preds = %entry
  %exception.i = call ptr @__cxa_allocate_exception(i64 16) #15
  invoke void @_ZN17DeadlyImportErrorC2EPKc(ptr noundef nonnull align 8 dereferenceable(16) %exception.i, ptr noundef nonnull @.str.13)
          to label %invoke.cont.i unwind label %lpad.i

invoke.cont.i:                                    ; preds = %if.then.i
  call void @__cxa_throw(ptr nonnull %exception.i, ptr nonnull @_ZTI17DeadlyImportError, ptr nonnull @_ZN17DeadlyImportErrorD2Ev) #16
  unreachable

lpad.i:                                           ; preds = %if.then.i
  %1 = landingpad { ptr, i32 }
          cleanup
  call void @__cxa_free_exception(ptr %exception.i) #15
  resume { ptr, i32 } %1

_Z4ReadIdET_PN6Assimp8IOStreamE.exit:             ; preds = %entry
  %2 = load double, ptr %t.i, align 8
  call void @llvm.lifetime.end.p0(i64 8, ptr nonnull %t.i)
  store double %2, ptr %agg.result, align 8
  %call1 = call { <2 x float>, float } @_Z4ReadI10aiVector3tIfEET_PN6Assimp8IOStreamE(ptr noundef nonnull %stream)
  %call1.fca.0.extract = extractvalue { <2 x float>, float } %call1, 0
  %call1.fca.1.extract = extractvalue { <2 x float>, float } %call1, 1
  %mValue = getelementptr inbounds i8, ptr %agg.result, i64 8
  store <2 x float> %call1.fca.0.extract, ptr %mValue, align 8
  %ref.tmp.sroa.2.0.mValue.sroa_idx = getelementptr inbounds i8, ptr %agg.result, i64 16
  store float %call1.fca.1.extract, ptr %ref.tmp.sroa.2.0.mValue.sroa_idx, align 8
  ret void
}